target datalayout = "e-m:e-p270:32:32-p271:32:32-p272:64:64-i64:64-i128:128-f80:128-n8:16:32:64-S128"
target triple = "x86_64-pc-linux-gnu"

; Function Attrs: nounwind uwtable
define i32 @ossl_ml_dsa_key_compress_high_bits(i32 noundef %0, i32 noundef %1) #0 {
  %3 = alloca i32, align 4
  %4 = alloca i32, align 4
  %5 = alloca i32, align 4
  %6 = alloca i32, align 4
  %7 = alloca i32, align 4
  store i32 %0, ptr %4, align 4, !tbaa !3
  store i32 %1, ptr %5, align 4, !tbaa !3
  call void @llvm.lifetime.start.p0(i64 4, ptr %6) #3
  %8 = load i32, ptr %4, align 4, !tbaa !3
  %9 = add i32 %8, 127
  %10 = lshr i32 %9, 7
  store i32 %10, ptr %6, align 4, !tbaa !3
  %11 = load i32, ptr %5, align 4, !tbaa !3
  %12 = icmp eq i32 %11, 261888
  br i1 %12, label %13, label %21

13:                                               ; preds = %2
  %14 = load i32, ptr %6, align 4, !tbaa !3
  %15 = mul nsw i32 %14, 1025
  %16 = add nsw i32 %15, 2097152
  %17 = ashr i32 %16, 22
  store i32 %17, ptr %6, align 4, !tbaa !3
  %18 = load i32, ptr %6, align 4, !tbaa !3
  %19 = and i32 %18, 15
  store i32 %19, ptr %6, align 4, !tbaa !3
  %20 = load i32, ptr %6, align 4, !tbaa !3
  store i32 %20, ptr %3, align 4
  store i32 1, ptr %7, align 4
  br label %34

21:                                               ; preds = %2
  %22 = load i32, ptr %6, align 4, !tbaa !3
  %23 = mul nsw i32 %22, 11275
  %24 = add nsw i32 %23, 8388608
  %25 = ashr i32 %24, 24
  store i32 %25, ptr %6, align 4, !tbaa !3
  %26 = load i32, ptr %6, align 4, !tbaa !3
  %27 = sub nsw i32 43, %26
  %28 = ashr i32 %27, 31
  %29 = load i32, ptr %6, align 4, !tbaa !3
  %30 = and i32 %28, %29
  %31 = load i32, ptr %6, align 4, !tbaa !3
  %32 = xor i32 %31, %30
  store i32 %32, ptr %6, align 4, !tbaa !3
  %33 = load i32, ptr %6, align 4, !tbaa !3
  store i32 %33, ptr %3, align 4
  store i32 1, ptr %7, align 4
  br label %34

34:                                               ; preds = %21, %13
  call void @llvm.lifetime.end.p0(i64 4, ptr %6) #3
  %35 = load i32, ptr %3, align 4
  ret i32 %35
}