; Function Attrs: mustprogress nofree norecurse nosync nounwind willreturn memory(none) uwtable
define range(i32 0, 128) i32 @ossl_ml_dsa_key_compress_high_bits(i32 noundef %0, i32 noundef %1) local_unnamed_addr #1 {
  %3 = add i32 %0, 127
  %4 = lshr i32 %3, 7
  %5 = icmp eq i32 %1, 261888
  br i1 %5, label %6, label %11

6:                                                ; preds = %2
  %7 = mul nuw nsw i32 %4, 1025
  %8 = add nuw nsw i32 %7, 2097152
  %9 = lshr i32 %8, 22
  %10 = and i32 %9, 15
  br label %17

11:                                               ; preds = %2
  %12 = mul nuw nsw i32 %4, 11275
  %13 = add nuw nsw i32 %12, 8388608
  %14 = lshr i32 %13, 24
  %15 = icmp ugt i32 %3, 8285311
  %16 = select i1 %15, i32 0, i32 %14
  br label %17

17:                                               ; preds = %11, %6
  %.0 = phi i32 [ %10, %6 ], [ %16, %11 ]
  ret i32 %.0
}